; ModuleID = '20/753.c'
source_filename = "20/753.c"
target datalayout = "e-m:e-p270:32:32-p271:32:32-p272:64:64-i64:64-f80:128-n8:16:32:64-S128"
target triple = "x86_64-pc-linux-gnu"

@.str = private unnamed_addr constant [5 x i8] c"%s%s\00", align 1
@.str.1 = private unnamed_addr constant [3 x i8] c"%c\00", align 1
@.str.2 = private unnamed_addr constant [3 x i8] c"%s\00", align 1
@.str.3 = private unnamed_addr constant [2 x i8] c"\0A\00", align 1

; Function Attrs: noinline nounwind uwtable
define dso_local i32 @main() #0 {
  %1 = alloca i32, align 4
  %2 = alloca [100 x [11 x i8]], align 16
  %3 = alloca [100 x [4 x i8]], align 16
  %4 = alloca i32, align 4
  %5 = alloca i32, align 4
  %6 = alloca i32, align 4
  %7 = alloca i32, align 4
  store i32 0, i32* %1, align 4
  store i32 0, i32* %5, align 4
  br label %8

8:                                                ; preds = %106, %0
  %9 = load i32, i32* %5, align 4
  %10 = sext i32 %9 to i64
  %11 = getelementptr inbounds [100 x [11 x i8]], [100 x [11 x i8]]* %2, i64 0, i64 %10
  %12 = getelementptr inbounds [11 x i8], [11 x i8]* %11, i64 0, i64 0
  %13 = load i32, i32* %5, align 4
  %14 = sext i32 %13 to i64
  %15 = getelementptr inbounds [100 x [4 x i8]], [100 x [4 x i8]]* %3, i64 0, i64 %14
  %16 = getelementptr inbounds [4 x i8], [4 x i8]* %15, i64 0, i64 0
  %17 = call i32 (i8*, ...) @__isoc99_scanf(i8* getelementptr inbounds ([5 x i8], [5 x i8]* @.str, i64 0, i64 0), i8* %12, i8* %16)
  %18 = icmp ne i32 %17, -1
  br i1 %18, label %19, label %110

19:                                               ; preds = %8
  store i32 0, i32* %4, align 4
  %20 = load i32, i32* %5, align 4
  %21 = sext i32 %20 to i64
  %22 = getelementptr inbounds [100 x [11 x i8]], [100 x [11 x i8]]* %2, i64 0, i64 %21
  %23 = getelementptr inbounds [11 x i8], [11 x i8]* %22, i64 0, i64 0
  %24 = load i8, i8* %23, align 1
  %25 = sext i8 %24 to i32
  store i32 %25, i32* %7, align 4
  store i32 1, i32* %6, align 4
  br label %26

26:                                               ; preds = %57, %19
  %27 = load i32, i32* %5, align 4
  %28 = sext i32 %27 to i64
  %29 = getelementptr inbounds [100 x [11 x i8]], [100 x [11 x i8]]* %2, i64 0, i64 %28
  %30 = load i32, i32* %6, align 4
  %31 = sext i32 %30 to i64
  %32 = getelementptr inbounds [11 x i8], [11 x i8]* %29, i64 0, i64 %31
  %33 = load i8, i8* %32, align 1
  %34 = icmp ne i8 %33, 0
  br i1 %34, label %35, label %60

35:                                               ; preds = %26
  %36 = load i32, i32* %5, align 4
  %37 = sext i32 %36 to i64
  %38 = getelementptr inbounds [100 x [11 x i8]], [100 x [11 x i8]]* %2, i64 0, i64 %37
  %39 = load i32, i32* %6, align 4
  %40 = sext i32 %39 to i64
  %41 = getelementptr inbounds [11 x i8], [11 x i8]* %38, i64 0, i64 %40
  %42 = load i8, i8* %41, align 1
  %43 = sext i8 %42 to i32
  %44 = load i32, i32* %7, align 4
  %45 = icmp sgt i32 %43, %44
  br i1 %45, label %46, label %56

46:                                               ; preds = %35
  %47 = load i32, i32* %5, align 4
  %48 = sext i32 %47 to i64
  %49 = getelementptr inbounds [100 x [11 x i8]], [100 x [11 x i8]]* %2, i64 0, i64 %48
  %50 = load i32, i32* %6, align 4
  %51 = sext i32 %50 to i64
  %52 = getelementptr inbounds [11 x i8], [11 x i8]* %49, i64 0, i64 %51
  %53 = load i8, i8* %52, align 1
  %54 = sext i8 %53 to i32
  store i32 %54, i32* %7, align 4
  %55 = load i32, i32* %6, align 4
  store i32 %55, i32* %4, align 4
  br label %56

56:                                               ; preds = %46, %35
  br label %57

57:                                               ; preds = %56
  %58 = load i32, i32* %6, align 4
  %59 = add nsw i32 %58, 1
  store i32 %59, i32* %6, align 4
  br label %26

60:                                               ; preds = %26
  store i32 0, i32* %6, align 4
  br label %61

61:                                               ; preds = %75, %60
  %62 = load i32, i32* %6, align 4
  %63 = load i32, i32* %4, align 4
  %64 = icmp sle i32 %62, %63
  br i1 %64, label %65, label %78

65:                                               ; preds = %61
  %66 = load i32, i32* %5, align 4
  %67 = sext i32 %66 to i64
  %68 = getelementptr inbounds [100 x [11 x i8]], [100 x [11 x i8]]* %2, i64 0, i64 %67
  %69 = load i32, i32* %6, align 4
  %70 = sext i32 %69 to i64
  %71 = getelementptr inbounds [11 x i8], [11 x i8]* %68, i64 0, i64 %70
  %72 = load i8, i8* %71, align 1
  %73 = sext i8 %72 to i32
  %74 = call i32 (i8*, ...) @printf(i8* getelementptr inbounds ([3 x i8], [3 x i8]* @.str.1, i64 0, i64 0), i32 %73)
  br label %75

75:                                               ; preds = %65
  %76 = load i32, i32* %6, align 4
  %77 = add nsw i32 %76, 1
  store i32 %77, i32* %6, align 4
  br label %61

78:                                               ; preds = %61
  %79 = load i32, i32* %5, align 4
  %80 = sext i32 %79 to i64
  %81 = getelementptr inbounds [100 x [4 x i8]], [100 x [4 x i8]]* %3, i64 0, i64 %80
  %82 = getelementptr inbounds [4 x i8], [4 x i8]* %81, i64 0, i64 0
  %83 = call i32 (i8*, ...) @printf(i8* getelementptr inbounds ([3 x i8], [3 x i8]* @.str.2, i64 0, i64 0), i8* %82)
  br label %84

84:                                               ; preds = %103, %78
  %85 = load i32, i32* %5, align 4
  %86 = sext i32 %85 to i64
  %87 = getelementptr inbounds [100 x [11 x i8]], [100 x [11 x i8]]* %2, i64 0, i64 %86
  %88 = load i32, i32* %6, align 4
  %89 = sext i32 %88 to i64
  %90 = getelementptr inbounds [11 x i8], [11 x i8]* %87, i64 0, i64 %89
  %91 = load i8, i8* %90, align 1
  %92 = icmp ne i8 %91, 0
  br i1 %92, label %93, label %106

93:                                               ; preds = %84
  %94 = load i32, i32* %5, align 4
  %95 = sext i32 %94 to i64
  %96 = getelementptr inbounds [100 x [11 x i8]], [100 x [11 x i8]]* %2, i64 0, i64 %95
  %97 = load i32, i32* %6, align 4
  %98 = sext i32 %97 to i64
  %99 = getelementptr inbounds [11 x i8], [11 x i8]* %96, i64 0, i64 %98
  %100 = load i8, i8* %99, align 1
  %101 = sext i8 %100 to i32
  %102 = call i32 (i8*, ...) @printf(i8* getelementptr inbounds ([3 x i8], [3 x i8]* @.str.1, i64 0, i64 0), i32 %101)
  br label %103

103:                                              ; preds = %93
  %104 = load i32, i32* %6, align 4
  %105 = add nsw i32 %104, 1
  store i32 %105, i32* %6, align 4
  br label %84

106:                                              ; preds = %84
  %107 = call i32 (i8*, ...) @printf(i8* getelementptr inbounds ([2 x i8], [2 x i8]* @.str.3, i64 0, i64 0))
  %108 = load i32, i32* %5, align 4
  %109 = add nsw i32 %108, 1
  store i32 %109, i32* %5, align 4
  br label %8

110:                                              ; preds = %8
  %111 = load i32, i32* %1, align 4
  ret i32 %111
}

declare dso_local i32 @__isoc99_scanf(i8*, ...) #1

declare dso_local i32 @printf(i8*, ...) #1


!llvm.module.flags = !{!0}
!llvm.ident = !{!1}

!0 = !{i32 1, !"wchar_size", i32 4}
!1 = !{!"clang version 10.0.0-4ubuntu1 "}
