; ModuleID = 'source-C-CXX/19/753.c'
source_filename = "source-C-CXX/19/753.c"
target datalayout = "e-m:e-p270:32:32-p271:32:32-p272:64:64-i64:64-f80:128-n8:16:32:64-S128"
target triple = "x86_64-pc-linux-gnu"

@.str = private unnamed_addr constant [5 x i8] c"%s%s\00", align 1
@.str.2 = private unnamed_addr constant [3 x i8] c"%s\00", align 1

; Function Attrs: nofree nounwind sspstrong uwtable
define dso_local i32 @main() local_unnamed_addr #0 {
  %1 = alloca [100 x [11 x i8]], align 16
  %2 = alloca [100 x [4 x i8]], align 16
  %3 = getelementptr inbounds [100 x [11 x i8]], [100 x [11 x i8]]* %1, i64 0, i64 0, i64 0
  call void @llvm.lifetime.start.p0i8(i64 1100, i8* nonnull %3) #4
  %4 = getelementptr inbounds [100 x [4 x i8]], [100 x [4 x i8]]* %2, i64 0, i64 0, i64 0
  call void @llvm.lifetime.start.p0i8(i64 400, i8* nonnull %4) #4
  %5 = call i32 (i8*, ...) @__isoc99_scanf(i8* getelementptr inbounds ([5 x i8], [5 x i8]* @.str, i64 0, i64 0), i8* nonnull %3, i8* nonnull %4)
  %6 = icmp eq i32 %5, -1
  br i1 %6, label %68, label %7

7:                                                ; preds = %0, %61
  %8 = phi i64 [ %63, %61 ], [ 0, %0 ]
  %9 = phi i8* [ %65, %61 ], [ %4, %0 ]
  %10 = phi i8* [ %64, %61 ], [ %3, %0 ]
  %11 = getelementptr inbounds [100 x [11 x i8]], [100 x [11 x i8]]* %1, i64 0, i64 %8, i64 1
  %12 = load i8, i8* %11, align 1, !tbaa !5
  %13 = icmp eq i8 %12, 0
  br i1 %13, label %19, label %14

14:                                               ; preds = %7
  %15 = load i8, i8* %10, align 1, !tbaa !5
  %16 = sext i8 %15 to i32
  br label %23

17:                                               ; preds = %23
  %18 = icmp slt i32 %31, 0
  br i1 %18, label %45, label %19

19:                                               ; preds = %7, %17
  %20 = phi i32 [ %31, %17 ], [ 0, %7 ]
  %21 = add nuw i32 %20, 1
  %22 = zext i32 %21 to i64
  br label %37

23:                                               ; preds = %14, %23
  %24 = phi i64 [ 1, %14 ], [ %33, %23 ]
  %25 = phi i8 [ %12, %14 ], [ %35, %23 ]
  %26 = phi i32 [ %16, %14 ], [ %32, %23 ]
  %27 = phi i32 [ 0, %14 ], [ %31, %23 ]
  %28 = sext i8 %25 to i32
  %29 = icmp slt i32 %26, %28
  %30 = trunc i64 %24 to i32
  %31 = select i1 %29, i32 %30, i32 %27
  %32 = select i1 %29, i32 %28, i32 %26
  %33 = add nuw nsw i64 %24, 1
  %34 = getelementptr inbounds [100 x [11 x i8]], [100 x [11 x i8]]* %1, i64 0, i64 %8, i64 %33
  %35 = load i8, i8* %34, align 1, !tbaa !5
  %36 = icmp eq i8 %35, 0
  br i1 %36, label %17, label %23, !llvm.loop !8

37:                                               ; preds = %19, %37
  %38 = phi i64 [ 0, %19 ], [ %43, %37 ]
  %39 = getelementptr inbounds [100 x [11 x i8]], [100 x [11 x i8]]* %1, i64 0, i64 %8, i64 %38
  %40 = load i8, i8* %39, align 1, !tbaa !5
  %41 = sext i8 %40 to i32
  %42 = call i32 @putchar(i32 %41)
  %43 = add nuw nsw i64 %38, 1
  %44 = icmp eq i64 %43, %22
  br i1 %44, label %45, label %37, !llvm.loop !10

45:                                               ; preds = %37, %17
  %46 = phi i32 [ 0, %17 ], [ %21, %37 ]
  %47 = call i32 (i8*, ...) @printf(i8* nonnull dereferenceable(1) getelementptr inbounds ([3 x i8], [3 x i8]* @.str.2, i64 0, i64 0), i8* nonnull %9)
  %48 = zext i32 %46 to i64
  %49 = getelementptr inbounds [100 x [11 x i8]], [100 x [11 x i8]]* %1, i64 0, i64 %8, i64 %48
  %50 = load i8, i8* %49, align 1, !tbaa !5
  %51 = icmp eq i8 %50, 0
  br i1 %51, label %61, label %52

52:                                               ; preds = %45, %52
  %53 = phi i64 [ %57, %52 ], [ %48, %45 ]
  %54 = phi i8 [ %59, %52 ], [ %50, %45 ]
  %55 = sext i8 %54 to i32
  %56 = call i32 @putchar(i32 %55)
  %57 = add nuw i64 %53, 1
  %58 = getelementptr inbounds [100 x [11 x i8]], [100 x [11 x i8]]* %1, i64 0, i64 %8, i64 %57
  %59 = load i8, i8* %58, align 1, !tbaa !5
  %60 = icmp eq i8 %59, 0
  br i1 %60, label %61, label %52, !llvm.loop !11

61:                                               ; preds = %52, %45
  %62 = call i32 @putchar(i32 10)
  %63 = add nuw i64 %8, 1
  %64 = getelementptr inbounds [100 x [11 x i8]], [100 x [11 x i8]]* %1, i64 0, i64 %63, i64 0
  %65 = getelementptr inbounds [100 x [4 x i8]], [100 x [4 x i8]]* %2, i64 0, i64 %63, i64 0
  %66 = call i32 (i8*, ...) @__isoc99_scanf(i8* getelementptr inbounds ([5 x i8], [5 x i8]* @.str, i64 0, i64 0), i8* nonnull %64, i8* nonnull %65)
  %67 = icmp eq i32 %66, -1
  br i1 %67, label %68, label %7, !llvm.loop !12

68:                                               ; preds = %61, %0
  call void @llvm.lifetime.end.p0i8(i64 400, i8* nonnull %4) #4
  call void @llvm.lifetime.end.p0i8(i64 1100, i8* nonnull %3) #4
  ret i32 0
}

; Function Attrs: argmemonly mustprogress nofree nosync nounwind willreturn
declare void @llvm.lifetime.start.p0i8(i64 immarg, i8* nocapture) #1

; Function Attrs: nofree nounwind
declare noundef i32 @__isoc99_scanf(i8* nocapture noundef readonly, ...) local_unnamed_addr #2

; Function Attrs: nofree nounwind
declare noundef i32 @printf(i8* nocapture noundef readonly, ...) local_unnamed_addr #2

; Function Attrs: argmemonly mustprogress nofree nosync nounwind willreturn
declare void @llvm.lifetime.end.p0i8(i64 immarg, i8* nocapture) #1

; Function Attrs: nofree nounwind
declare noundef i32 @putchar(i32 noundef) local_unnamed_addr #3


!llvm.module.flags = !{!0, !1, !2, !3}
!llvm.ident = !{!4}

!0 = !{i32 1, !"wchar_size", i32 4}
!1 = !{i32 7, !"PIC Level", i32 2}
!2 = !{i32 7, !"PIE Level", i32 2}
!3 = !{i32 7, !"uwtable", i32 1}
!4 = !{!"clang version 13.0.0"}
!5 = !{!6, !6, i64 0}
!6 = !{!"omnipotent char", !7, i64 0}
!7 = !{!"Simple C/C++ TBAA"}
!8 = distinct !{!8, !9}
!9 = !{!"llvm.loop.mustprogress"}
!10 = distinct !{!10, !9}
!11 = distinct !{!11, !9}
!12 = distinct !{!12, !9}
